; Function Attrs: nounwind uwtable
define i32 @Map_MappingCountDoubles(ptr noundef readnone captures(none) %0, ptr noundef readonly captures(none) %1) local_unnamed_addr #0 {
  %3 = getelementptr inbounds nuw i8, ptr %1, i64 8
  %4 = load i32, ptr %3, align 8, !tbaa !28
  %5 = icmp sgt i32 %4, 0
  br i1 %5, label %.lr.ph, label %._crit_edge

.lr.ph:                                           ; preds = %2, %23
  %indvars.iv = phi i64 [ %indvars.iv.next, %23 ], [ 0, %2 ]
  %.01116 = phi i32 [ %.1, %23 ], [ 0, %2 ]
  %6 = load ptr, ptr %1, align 8, !tbaa !34
  %7 = getelementptr inbounds nuw ptr, ptr %6, i64 %indvars.iv
  %8 = load ptr, ptr %7, align 8, !tbaa !31
  %9 = tail call i32 @Map_NodeIsAnd(ptr noundef %8) #16
  %.not = icmp eq i32 %9, 0
  br i1 %.not, label %23, label %10

10:                                               ; preds = %.lr.ph
  %11 = getelementptr inbounds nuw i8, ptr %8, i64 32
  %12 = load i32, ptr %11, align 8, !tbaa !39
  %.not12 = icmp eq i32 %12, 0
  br i1 %.not12, label %23, label %13

13:                                               ; preds = %10
  %14 = getelementptr inbounds nuw i8, ptr %8, i64 144
  %15 = load ptr, ptr %14, align 8, !tbaa !66
  %.not13 = icmp eq ptr %15, null
  br i1 %.not13, label %23, label %16

16:                                               ; preds = %13
  %17 = getelementptr inbounds nuw i8, ptr %8, i64 36
  %18 = load i32, ptr %17, align 4, !tbaa !39
  %.not14 = icmp eq i32 %18, 0
  br i1 %.not14, label %23, label %19

19:                                               ; preds = %16
  %20 = getelementptr inbounds nuw i8, ptr %8, i64 152
  %21 = load ptr, ptr %20, align 8, !tbaa !66
  %.not15 = icmp ne ptr %21, null
  %22 = zext i1 %.not15 to i32
  %spec.select = add nsw i32 %.01116, %22
  br label %23

23:                                               ; preds = %19, %10, %13, %16, %.lr.ph
  %.1 = phi i32 [ %.01116, %16 ], [ %.01116, %13 ], [ %.01116, %10 ], [ %.01116, %.lr.ph ], [ %spec.select, %19 ]
  %indvars.iv.next = add nuw nsw i64 %indvars.iv, 1
  %24 = load i32, ptr %3, align 8, !tbaa !28
  %25 = sext i32 %24 to i64
  %26 = icmp slt i64 %indvars.iv.next, %25
  br i1 %26, label %.lr.ph, label %._crit_edge, !llvm.loop !69

._crit_edge:                                      ; preds = %23, %2
  %.011.lcssa = phi i32 [ 0, %2 ], [ %.1, %23 ]
  ret i32 %.011.lcssa
}